; Function Attrs: mustprogress nounwind uwtable
define hidden void @_ZN6hermes3sem17SemanticValidator22recursionDepthExceededEPNS_6ESTree4NodeE(ptr noundef nonnull readonly align 8 captures(none) dereferenceable(168) %this, ptr noundef readonly captures(none) %n) local_unnamed_addr #0 align 2 {
entry:
  %ref.tmp = alloca %"class.llvh::Twine", align 8
  %sm_ = getelementptr inbounds nuw i8, ptr %this, i64 8
  %0 = load ptr, ptr %sm_, align 8
  %End.i = getelementptr inbounds nuw i8, ptr %n, i64 32
  %retval.sroa.0.0.copyload.i = load ptr, ptr %End.i, align 8
  %LHSKind.i = getelementptr inbounds nuw i8, ptr %ref.tmp, i64 16
  %RHSKind.i = getelementptr inbounds nuw i8, ptr %ref.tmp, i64 17
  store i8 1, ptr %RHSKind.i, align 1
  store ptr @.str.64, ptr %ref.tmp, align 8
  store i8 3, ptr %LHSKind.i, align 8
  call void @_ZN6hermes18SourceErrorManager7messageENS0_8DiagKindEN4llvh5SMLocERKNS2_5TwineENS_9SubsystemE(ptr noundef nonnull align 8 dereferenceable(464) %0, i32 noundef 0, ptr %retval.sroa.0.0.copyload.i, ptr noundef nonnull align 8 dereferenceable(18) %ref.tmp, i32 noundef 0) #21
  ret void
}